target datalayout = "e-m:e-p270:32:32-p271:32:32-p272:64:64-i64:64-i128:128-f80:128-n8:16:32:64-S128"
target triple = "x86_64-pc-linux-gnu"

; Function Attrs: nounwind uwtable
define i32 @ff_vorbis_len2vlc(ptr noundef %0, ptr noundef %1, i32 noundef %2) #0 {
  %4 = alloca i32, align 4
  %5 = alloca ptr, align 8
  %6 = alloca ptr, align 8
  %7 = alloca i32, align 4
  %8 = alloca [33 x i32], align 16
  %9 = alloca i32, align 4
  %10 = alloca i32, align 4
  %11 = alloca i32, align 4
  %12 = alloca i32, align 4
  %13 = alloca i32, align 4
  store ptr %0, ptr %5, align 8, !tbaa !11
  store ptr %1, ptr %6, align 8, !tbaa !14
  store i32 %2, ptr %7, align 4, !tbaa !4
  call void @llvm.lifetime.start.p0(i64 132, ptr %8) #6
  call void @llvm.memset.p0.i64(ptr align 16 %8, i8 0, i64 132, i1 false)
  %14 = getelementptr inbounds <{ i32, [32 x i32] }>, ptr %8, i32 0, i32 0
  store i32 404, ptr %14, align 16
  call void @llvm.lifetime.start.p0(i64 4, ptr %9) #6
  call void @llvm.lifetime.start.p0(i64 4, ptr %10) #6
  call void @llvm.lifetime.start.p0(i64 4, ptr %11) #6
  call void @llvm.lifetime.start.p0(i64 4, ptr %12) #6
  store i32 0, ptr %11, align 4, !tbaa !4
  br label %15

15:                                               ; preds = %30, %3
  %16 = load i32, ptr %11, align 4, !tbaa !4
  %17 = load i32, ptr %7, align 4, !tbaa !4
  %18 = icmp ult i32 %16, %17
  br i1 %18, label %19, label %27

19:                                               ; preds = %15
  %20 = load ptr, ptr %5, align 8, !tbaa !11
  %21 = load i32, ptr %11, align 4, !tbaa !4
  %22 = zext i32 %21 to i64
  %23 = getelementptr inbounds nuw i8, ptr %20, i64 %22
  %24 = load i8, ptr %23, align 1, !tbaa !16
  %25 = zext i8 %24 to i32
  %26 = icmp eq i32 %25, 0
  br label %27

27:                                               ; preds = %19, %15
  %28 = phi i1 [ false, %15 ], [ %26, %19 ]
  br i1 %28, label %29, label %33

29:                                               ; preds = %27
  br label %30

30:                                               ; preds = %29
  %31 = load i32, ptr %11, align 4, !tbaa !4
  %32 = add i32 %31, 1
  store i32 %32, ptr %11, align 4, !tbaa !4
  br label %15, !llvm.loop !17

33:                                               ; preds = %27
  %34 = load i32, ptr %11, align 4, !tbaa !4
  %35 = load i32, ptr %7, align 4, !tbaa !4
  %36 = icmp eq i32 %34, %35
  br i1 %36, label %37, label %38

37:                                               ; preds = %33
  store i32 0, ptr %4, align 4
  store i32 1, ptr %13, align 4
  br label %202

38:                                               ; preds = %33
  %39 = load ptr, ptr %6, align 8, !tbaa !14
  %40 = load i32, ptr %11, align 4, !tbaa !4
  %41 = zext i32 %40 to i64
  %42 = getelementptr inbounds nuw i32, ptr %39, i64 %41
  store i32 0, ptr %42, align 4, !tbaa !4
  %43 = load ptr, ptr %5, align 8, !tbaa !11
  %44 = load i32, ptr %11, align 4, !tbaa !4
  %45 = zext i32 %44 to i64
  %46 = getelementptr inbounds nuw i8, ptr %43, i64 %45
  %47 = load i8, ptr %46, align 1, !tbaa !16
  %48 = zext i8 %47 to i32
  %49 = icmp sgt i32 %48, 32
  br i1 %49, label %50, label %51

50:                                               ; preds = %38
  store i32 -1094995529, ptr %4, align 4
  store i32 1, ptr %13, align 4
  br label %202

51:                                               ; preds = %38
  store i32 0, ptr %9, align 4, !tbaa !4
  br label %52

52:                                               ; preds = %68, %51
  %53 = load i32, ptr %9, align 4, !tbaa !4
  %54 = load ptr, ptr %5, align 8, !tbaa !11
  %55 = load i32, ptr %11, align 4, !tbaa !4
  %56 = zext i32 %55 to i64
  %57 = getelementptr inbounds nuw i8, ptr %54, i64 %56
  %58 = load i8, ptr %57, align 1, !tbaa !16
  %59 = zext i8 %58 to i32
  %60 = icmp ult i32 %53, %59
  br i1 %60, label %61, label %71

61:                                               ; preds = %52
  %62 = load i32, ptr %9, align 4, !tbaa !4
  %63 = shl i32 1, %62
  %64 = load i32, ptr %9, align 4, !tbaa !4
  %65 = add i32 %64, 1
  %66 = zext i32 %65 to i64
  %67 = getelementptr inbounds nuw [33 x i32], ptr %8, i64 0, i64 %66
  store i32 %63, ptr %67, align 4, !tbaa !4
  br label %68

68:                                               ; preds = %61
  %69 = load i32, ptr %9, align 4, !tbaa !4
  %70 = add i32 %69, 1
  store i32 %70, ptr %9, align 4, !tbaa !4
  br label %52, !llvm.loop !18

71:                                               ; preds = %52
  %72 = load i32, ptr %11, align 4, !tbaa !4
  %73 = add i32 %72, 1
  store i32 %73, ptr %11, align 4, !tbaa !4
  %74 = load i32, ptr %11, align 4, !tbaa !4
  store i32 %74, ptr %9, align 4, !tbaa !4
  br label %75

75:                                               ; preds = %90, %71
  %76 = load i32, ptr %9, align 4, !tbaa !4
  %77 = load i32, ptr %7, align 4, !tbaa !4
  %78 = icmp ult i32 %76, %77
  br i1 %78, label %79, label %87

79:                                               ; preds = %75
  %80 = load ptr, ptr %5, align 8, !tbaa !11
  %81 = load i32, ptr %9, align 4, !tbaa !4
  %82 = zext i32 %81 to i64
  %83 = getelementptr inbounds nuw i8, ptr %80, i64 %82
  %84 = load i8, ptr %83, align 1, !tbaa !16
  %85 = zext i8 %84 to i32
  %86 = icmp eq i32 %85, 0
  br label %87

87:                                               ; preds = %79, %75
  %88 = phi i1 [ false, %75 ], [ %86, %79 ]
  br i1 %88, label %89, label %93

89:                                               ; preds = %87
  br label %90

90:                                               ; preds = %89
  %91 = load i32, ptr %9, align 4, !tbaa !4
  %92 = add i32 %91, 1
  store i32 %92, ptr %9, align 4, !tbaa !4
  br label %75, !llvm.loop !19

93:                                               ; preds = %87
  %94 = load i32, ptr %9, align 4, !tbaa !4
  %95 = load i32, ptr %7, align 4, !tbaa !4
  %96 = icmp eq i32 %94, %95
  br i1 %96, label %97, label %98

97:                                               ; preds = %93
  store i32 0, ptr %4, align 4
  store i32 1, ptr %13, align 4
  br label %202

98:                                               ; preds = %93
  br label %99

99:                                               ; preds = %183, %98
  %100 = load i32, ptr %11, align 4, !tbaa !4
  %101 = load i32, ptr %7, align 4, !tbaa !4
  %102 = icmp ult i32 %100, %101
  br i1 %102, label %103, label %186

103:                                              ; preds = %99
  %104 = load ptr, ptr %5, align 8, !tbaa !11
  %105 = load i32, ptr %11, align 4, !tbaa !4
  %106 = zext i32 %105 to i64
  %107 = getelementptr inbounds nuw i8, ptr %104, i64 %106
  %108 = load i8, ptr %107, align 1, !tbaa !16
  %109 = zext i8 %108 to i32
  %110 = icmp sgt i32 %109, 32
  br i1 %110, label %111, label %112

111:                                              ; preds = %103
  store i32 -1094995529, ptr %4, align 4
  store i32 1, ptr %13, align 4
  br label %202

112:                                              ; preds = %103
  %113 = load ptr, ptr %5, align 8, !tbaa !11
  %114 = load i32, ptr %11, align 4, !tbaa !4
  %115 = zext i32 %114 to i64
  %116 = getelementptr inbounds nuw i8, ptr %113, i64 %115
  %117 = load i8, ptr %116, align 1, !tbaa !16
  %118 = zext i8 %117 to i32
  %119 = icmp eq i32 %118, 0
  br i1 %119, label %120, label %121

120:                                              ; preds = %112
  br label %183

121:                                              ; preds = %112
  %122 = load ptr, ptr %5, align 8, !tbaa !11
  %123 = load i32, ptr %11, align 4, !tbaa !4
  %124 = zext i32 %123 to i64
  %125 = getelementptr inbounds nuw i8, ptr %122, i64 %124
  %126 = load i8, ptr %125, align 1, !tbaa !16
  %127 = zext i8 %126 to i32
  store i32 %127, ptr %9, align 4, !tbaa !4
  br label %128

128:                                              ; preds = %139, %121
  %129 = load i32, ptr %9, align 4, !tbaa !4
  %130 = icmp ugt i32 %129, 0
  br i1 %130, label %131, label %142

131:                                              ; preds = %128
  %132 = load i32, ptr %9, align 4, !tbaa !4
  %133 = zext i32 %132 to i64
  %134 = getelementptr inbounds nuw [33 x i32], ptr %8, i64 0, i64 %133
  %135 = load i32, ptr %134, align 4, !tbaa !4
  %136 = icmp ne i32 %135, 0
  br i1 %136, label %137, label %138

137:                                              ; preds = %131
  br label %142

138:                                              ; preds = %131
  br label %139

139:                                              ; preds = %138
  %140 = load i32, ptr %9, align 4, !tbaa !4
  %141 = add i32 %140, -1
  store i32 %141, ptr %9, align 4, !tbaa !4
  br label %128, !llvm.loop !20

142:                                              ; preds = %137, %128
  %143 = load i32, ptr %9, align 4, !tbaa !4
  %144 = icmp ne i32 %143, 0
  br i1 %144, label %146, label %145

145:                                              ; preds = %142
  store i32 -1094995529, ptr %4, align 4
  store i32 1, ptr %13, align 4
  br label %202

146:                                              ; preds = %142
  %147 = load i32, ptr %9, align 4, !tbaa !4
  %148 = zext i32 %147 to i64
  %149 = getelementptr inbounds nuw [33 x i32], ptr %8, i64 0, i64 %148
  %150 = load i32, ptr %149, align 4, !tbaa !4
  store i32 %150, ptr %12, align 4, !tbaa !4
  %151 = load i32, ptr %9, align 4, !tbaa !4
  %152 = zext i32 %151 to i64
  %153 = getelementptr inbounds nuw [33 x i32], ptr %8, i64 0, i64 %152
  store i32 0, ptr %153, align 4, !tbaa !4
  %154 = load i32, ptr %9, align 4, !tbaa !4
  %155 = add i32 %154, 1
  store i32 %155, ptr %10, align 4, !tbaa !4
  br label %156

156:                                              ; preds = %174, %146
  %157 = load i32, ptr %10, align 4, !tbaa !4
  %158 = load ptr, ptr %5, align 8, !tbaa !11
  %159 = load i32, ptr %11, align 4, !tbaa !4
  %160 = zext i32 %159 to i64
  %161 = getelementptr inbounds nuw i8, ptr %158, i64 %160
  %162 = load i8, ptr %161, align 1, !tbaa !16
  %163 = zext i8 %162 to i32
  %164 = icmp ule i32 %157, %163
  br i1 %164, label %165, label %177

165:                                              ; preds = %156
  %166 = load i32, ptr %12, align 4, !tbaa !4
  %167 = load i32, ptr %10, align 4, !tbaa !4
  %168 = sub i32 %167, 1
  %169 = shl i32 1, %168
  %170 = add i32 %166, %169
  %171 = load i32, ptr %10, align 4, !tbaa !4
  %172 = zext i32 %171 to i64
  %173 = getelementptr inbounds nuw [33 x i32], ptr %8, i64 0, i64 %172
  store i32 %170, ptr %173, align 4, !tbaa !4
  br label %174

174:                                              ; preds = %165
  %175 = load i32, ptr %10, align 4, !tbaa !4
  %176 = add i32 %175, 1
  store i32 %176, ptr %10, align 4, !tbaa !4
  br label %156, !llvm.loop !21

177:                                              ; preds = %156
  %178 = load i32, ptr %12, align 4, !tbaa !4
  %179 = load ptr, ptr %6, align 8, !tbaa !14
  %180 = load i32, ptr %11, align 4, !tbaa !4
  %181 = zext i32 %180 to i64
  %182 = getelementptr inbounds nuw i32, ptr %179, i64 %181
  store i32 %178, ptr %182, align 4, !tbaa !4
  br label %183

183:                                              ; preds = %177, %120
  %184 = load i32, ptr %11, align 4, !tbaa !4
  %185 = add i32 %184, 1
  store i32 %185, ptr %11, align 4, !tbaa !4
  br label %99, !llvm.loop !22

186:                                              ; preds = %99
  store i32 1, ptr %11, align 4, !tbaa !4
  br label %187

187:                                              ; preds = %198, %186
  %188 = load i32, ptr %11, align 4, !tbaa !4
  %189 = icmp ult i32 %188, 33
  br i1 %189, label %190, label %201

190:                                              ; preds = %187
  %191 = load i32, ptr %11, align 4, !tbaa !4
  %192 = zext i32 %191 to i64
  %193 = getelementptr inbounds nuw [33 x i32], ptr %8, i64 0, i64 %192
  %194 = load i32, ptr %193, align 4, !tbaa !4
  %195 = icmp ne i32 %194, 0
  br i1 %195, label %196, label %197

196:                                              ; preds = %190
  store i32 -1094995529, ptr %4, align 4
  store i32 1, ptr %13, align 4
  br label %202

197:                                              ; preds = %190
  br label %198

198:                                              ; preds = %197
  %199 = load i32, ptr %11, align 4, !tbaa !4
  %200 = add i32 %199, 1
  store i32 %200, ptr %11, align 4, !tbaa !4
  br label %187, !llvm.loop !23

201:                                              ; preds = %187
  store i32 0, ptr %4, align 4
  store i32 1, ptr %13, align 4
  br label %202

202:                                              ; preds = %201, %196, %145, %111, %97, %50, %37
  call void @llvm.lifetime.end.p0(i64 4, ptr %12) #6
  call void @llvm.lifetime.end.p0(i64 4, ptr %11) #6
  call void @llvm.lifetime.end.p0(i64 4, ptr %10) #6
  call void @llvm.lifetime.end.p0(i64 4, ptr %9) #6
  call void @llvm.lifetime.end.p0(i64 132, ptr %8) #6
  %203 = load i32, ptr %4, align 4
  ret i32 %203
}