; Function Attrs: nofree norecurse nosync nounwind memory(argmem: readwrite) uwtable
define range(i32 -1094995529, 1) i32 @ff_vorbis_len2vlc(ptr noundef readonly captures(none) %0, ptr noundef writeonly captures(none) %1, i32 noundef %2) local_unnamed_addr #2 {
  %4 = alloca [33 x i32], align 16
  call void @llvm.lifetime.start.p0(i64 132, ptr nonnull %4) #8
  call void @llvm.memset.p0.i64(ptr noundef nonnull align 16 dereferenceable(132) %4, i8 0, i64 132, i1 false)
  store i32 404, ptr %4, align 16
  %.not96 = icmp eq i32 %2, 0
  br i1 %.not96, label %.critedge, label %.lr.ph.preheader

.lr.ph.preheader:                                 ; preds = %3
  %wide.trip.count = zext i32 %2 to i64
  br label %.lr.ph

.lr.ph:                                           ; preds = %.lr.ph.preheader, %8
  %indvars.iv = phi i64 [ 0, %.lr.ph.preheader ], [ %indvars.iv.next, %8 ]
  %5 = getelementptr inbounds nuw i8, ptr %0, i64 %indvars.iv
  %6 = load i8, ptr %5, align 1, !tbaa !7
  %7 = icmp eq i8 %6, 0
  br i1 %7, label %8, label %.critedge.loopexit

8:                                                ; preds = %.lr.ph
  %indvars.iv.next = add nuw nsw i64 %indvars.iv, 1
  %exitcond.not = icmp eq i64 %indvars.iv.next, %wide.trip.count
  br i1 %exitcond.not, label %.loopexit, label %.lr.ph, !llvm.loop !10

.critedge.loopexit:                               ; preds = %.lr.ph
  %9 = trunc nuw i64 %indvars.iv to i32
  br label %.critedge

.critedge:                                        ; preds = %.critedge.loopexit, %3
  %.057.lcssa = phi i32 [ 0, %3 ], [ %9, %.critedge.loopexit ]
  %10 = icmp eq i32 %.057.lcssa, %2
  br i1 %10, label %.loopexit, label %11

11:                                               ; preds = %.critedge
  %12 = zext i32 %.057.lcssa to i64
  %13 = getelementptr inbounds nuw i32, ptr %1, i64 %12
  store i32 0, ptr %13, align 4, !tbaa !11
  %14 = getelementptr inbounds nuw i8, ptr %0, i64 %12
  %15 = load i8, ptr %14, align 1, !tbaa !7
  %16 = icmp ugt i8 %15, 32
  br i1 %16, label %.loopexit, label %.preheader72

.preheader72:                                     ; preds = %11
  %.not97 = icmp eq i8 %15, 0
  br i1 %.not97, label %._crit_edge, label %.lr.ph79.preheader

.lr.ph79.preheader:                               ; preds = %.preheader72
  %wide.trip.count108 = zext nneg i8 %15 to i64
  br label %.lr.ph79

.lr.ph79:                                         ; preds = %.lr.ph79.preheader, %.lr.ph79
  %indvars.iv105 = phi i64 [ 0, %.lr.ph79.preheader ], [ %indvars.iv.next106, %.lr.ph79 ]
  %17 = trunc nuw nsw i64 %indvars.iv105 to i32
  %18 = shl nuw i32 1, %17
  %indvars.iv.next106 = add nuw nsw i64 %indvars.iv105, 1
  %19 = getelementptr inbounds nuw [33 x i32], ptr %4, i64 0, i64 %indvars.iv.next106
  store i32 %18, ptr %19, align 4, !tbaa !11
  %exitcond109.not = icmp eq i64 %indvars.iv.next106, %wide.trip.count108
  br i1 %exitcond109.not, label %._crit_edge, label %.lr.ph79, !llvm.loop !13

._crit_edge:                                      ; preds = %.lr.ph79, %.preheader72
  %20 = add i32 %.057.lcssa, 1
  %21 = icmp ult i32 %20, %2
  br i1 %21, label %.lr.ph82.preheader, label %.critedge2.thread128

.lr.ph82.preheader:                               ; preds = %._crit_edge
  %22 = zext i32 %20 to i64
  br label %.lr.ph82

.lr.ph82:                                         ; preds = %.lr.ph82.preheader, %26
  %indvars.iv110 = phi i64 [ %22, %.lr.ph82.preheader ], [ %indvars.iv.next111, %26 ]
  %23 = getelementptr inbounds nuw i8, ptr %0, i64 %indvars.iv110
  %24 = load i8, ptr %23, align 1, !tbaa !7
  %25 = icmp eq i8 %24, 0
  br i1 %25, label %26, label %.critedge2

26:                                               ; preds = %.lr.ph82
  %indvars.iv.next111 = add nuw nsw i64 %indvars.iv110, 1
  %lftr.wideiv = trunc i64 %indvars.iv.next111 to i32
  %exitcond113.not = icmp eq i32 %2, %lftr.wideiv
  br i1 %exitcond113.not, label %.loopexit, label %.lr.ph82, !llvm.loop !14

.critedge2:                                       ; preds = %.lr.ph82
  %27 = trunc nuw i64 %indvars.iv110 to i32
  %28 = icmp eq i32 %2, %27
  br i1 %28, label %.loopexit, label %.lr.ph94

.critedge2.thread128:                             ; preds = %._crit_edge
  %29 = icmp eq i32 %20, %2
  br i1 %29, label %.loopexit, label %.preheader.preheader

.lr.ph94:                                         ; preds = %.critedge2, %49
  %.193 = phi i32 [ %50, %49 ], [ %20, %.critedge2 ]
  %30 = zext i32 %.193 to i64
  %31 = getelementptr inbounds nuw i8, ptr %0, i64 %30
  %32 = load i8, ptr %31, align 1, !tbaa !7
  %33 = zext i8 %32 to i32
  %34 = icmp ugt i8 %32, 32
  br i1 %34, label %.loopexit, label %35

35:                                               ; preds = %.lr.ph94
  %36 = icmp eq i8 %32, 0
  br i1 %36, label %49, label %.preheader68

.preheader68:                                     ; preds = %35, %40
  %.26187 = phi i32 [ %41, %40 ], [ %33, %35 ]
  %37 = zext i32 %.26187 to i64
  %38 = getelementptr inbounds nuw [33 x i32], ptr %4, i64 0, i64 %37
  %39 = load i32, ptr %38, align 4, !tbaa !11
  %.not65 = icmp eq i32 %39, 0
  br i1 %.not65, label %40, label %42

40:                                               ; preds = %.preheader68
  %41 = add nsw i32 %.26187, -1
  %cond = icmp eq i32 %41, 0
  br i1 %cond, label %.loopexit, label %.preheader68, !llvm.loop !15

42:                                               ; preds = %.preheader68
  %43 = getelementptr inbounds nuw [33 x i32], ptr %4, i64 0, i64 %37
  store i32 0, ptr %43, align 4, !tbaa !11
  %.not67.not88 = icmp ult i32 %.26187, %33
  br i1 %.not67.not88, label %.lr.ph91, label %._crit_edge92

.lr.ph91:                                         ; preds = %42, %.lr.ph91
  %indvars.iv116 = phi i64 [ %indvars.iv.next117, %.lr.ph91 ], [ %37, %42 ]
  %indvars.iv.next117 = add nuw nsw i64 %indvars.iv116, 1
  %44 = trunc nuw i64 %indvars.iv116 to i32
  %45 = shl nuw i32 1, %44
  %46 = add i32 %45, %39
  %47 = getelementptr inbounds nuw [33 x i32], ptr %4, i64 0, i64 %indvars.iv.next117
  store i32 %46, ptr %47, align 4, !tbaa !11
  %lftr.wideiv119 = trunc i64 %indvars.iv.next117 to i32
  %exitcond120.not = icmp eq i32 %lftr.wideiv119, %33
  br i1 %exitcond120.not, label %._crit_edge92, label %.lr.ph91, !llvm.loop !16

._crit_edge92:                                    ; preds = %.lr.ph91, %42
  %48 = getelementptr inbounds nuw i32, ptr %1, i64 %30
  store i32 %39, ptr %48, align 4, !tbaa !11
  br label %49

49:                                               ; preds = %35, %._crit_edge92
  %50 = add nuw i32 %.193, 1
  %exitcond121.not = icmp eq i32 %50, %2
  br i1 %exitcond121.not, label %.preheader.preheader, label %.lr.ph94, !llvm.loop !17

.preheader.preheader:                             ; preds = %49, %.critedge2.thread128
  br label %.preheader

51:                                               ; preds = %.preheader
  %indvars.iv.next123 = add nuw nsw i64 %indvars.iv122, 1
  %exitcond125.not = icmp eq i64 %indvars.iv.next123, 33
  br i1 %exitcond125.not, label %.loopexit, label %.preheader, !llvm.loop !18

.preheader:                                       ; preds = %.preheader.preheader, %51
  %indvars.iv122 = phi i64 [ %indvars.iv.next123, %51 ], [ 1, %.preheader.preheader ]
  %52 = getelementptr inbounds nuw [33 x i32], ptr %4, i64 0, i64 %indvars.iv122
  %53 = load i32, ptr %52, align 4, !tbaa !11
  %.not = icmp eq i32 %53, 0
  br i1 %.not, label %51, label %.loopexit

.loopexit:                                        ; preds = %8, %26, %.lr.ph94, %40, %51, %.preheader, %.critedge2.thread128, %.critedge2, %11, %.critedge
  %.0 = phi i32 [ 0, %.critedge ], [ -1094995529, %11 ], [ 0, %.critedge2 ], [ 0, %.critedge2.thread128 ], [ 0, %51 ], [ -1094995529, %.preheader ], [ -1094995529, %40 ], [ -1094995529, %.lr.ph94 ], [ 0, %26 ], [ 0, %8 ]
  call void @llvm.lifetime.end.p0(i64 132, ptr nonnull %4) #8
  ret i32 %.0
}